target datalayout = "e-m:e-p270:32:32-p271:32:32-p272:64:64-i64:64-i128:128-f80:128-n8:16:32:64-S128"
target triple = "x86_64-unknown-linux-gnu"

%"class.QuantLib::FdmLinearOpLayout" = type { i64, %"class.std::vector", %"class.std::vector" }
%"class.std::vector" = type { %"struct.std::_Vector_base" }
%"struct.std::_Vector_base" = type { %"struct.std::_Vector_base<unsigned long, std::allocator<unsigned long>>::_Vector_impl" }
%"struct.std::_Vector_base<unsigned long, std::allocator<unsigned long>>::_Vector_impl" = type { %"struct.std::_Vector_base<unsigned long, std::allocator<unsigned long>>::_Vector_impl_data" }
%"struct.std::_Vector_base<unsigned long, std::allocator<unsigned long>>::_Vector_impl_data" = type { ptr, ptr, ptr }
%"class.QuantLib::FdmLinearOpIterator" = type { i64, %"class.std::vector", %"class.std::vector" }

; Function Attrs: mustprogress nounwind uwtable
define linkonce_odr noundef nonnull align 8 dereferenceable(8) ptr @_ZNKSt6vectorImSaImEEixEm(ptr noundef nonnull align 8 dereferenceable(24) %this, i64 noundef %__n) #2 comdat align 2 {
entry:
  %this.addr = alloca ptr, align 8
  %__n.addr = alloca i64, align 8
  store ptr %this, ptr %this.addr, align 8, !tbaa !3
  store i64 %__n, ptr %__n.addr, align 8, !tbaa !7
  %this1 = load ptr, ptr %this.addr, align 8
  %_M_impl = getelementptr inbounds nuw %"struct.std::_Vector_base", ptr %this1, i32 0, i32 0
  %_M_start = getelementptr inbounds nuw %"struct.std::_Vector_base<unsigned long, std::allocator<unsigned long>>::_Vector_impl_data", ptr %_M_impl, i32 0, i32 0
  %0 = load ptr, ptr %_M_start, align 8, !tbaa !17
  %1 = load i64, ptr %__n.addr, align 8, !tbaa !7
  %add.ptr = getelementptr inbounds nuw i64, ptr %0, i64 %1
  ret ptr %add.ptr
}

; Function Attrs: mustprogress nounwind uwtable
define linkonce_odr noundef nonnull align 8 dereferenceable(24) ptr @_ZNK8QuantLib19FdmLinearOpIterator11coordinatesEv(ptr noundef nonnull align 8 dereferenceable(56) %this) #2 comdat align 2 {
entry:
  %this.addr = alloca ptr, align 8
  store ptr %this, ptr %this.addr, align 8, !tbaa !3
  %this1 = load ptr, ptr %this.addr, align 8
  %coordinates_ = getelementptr inbounds nuw %"class.QuantLib::FdmLinearOpIterator", ptr %this1, i32 0, i32 2
  ret ptr %coordinates_
}

; Function Attrs: mustprogress nounwind uwtable
define linkonce_odr noundef i64 @_ZNK8QuantLib19FdmLinearOpIterator5indexEv(ptr noundef nonnull align 8 dereferenceable(56) %this) #2 comdat align 2 {
entry:
  %this.addr = alloca ptr, align 8
  store ptr %this, ptr %this.addr, align 8, !tbaa !3
  %this1 = load ptr, ptr %this.addr, align 8
  %index_ = getelementptr inbounds nuw %"class.QuantLib::FdmLinearOpIterator", ptr %this1, i32 0, i32 0
  %0 = load i64, ptr %index_, align 8, !tbaa !11
  ret i64 %0
}

; Function Attrs: mustprogress uwtable
define noundef i64 @_ZNK8QuantLib17FdmLinearOpLayout13neighbourhoodERKNS_19FdmLinearOpIteratorEmimi(ptr noundef nonnull align 8 dereferenceable(56) %this, ptr noundef nonnull align 8 dereferenceable(56) %iterator, i64 noundef %i1, i32 noundef %offset1, i64 noundef %i2, i32 noundef %offset2) #0 align 2 {
entry:
  %this.addr = alloca ptr, align 8
  %iterator.addr = alloca ptr, align 8
  %i1.addr = alloca i64, align 8
  %offset1.addr = alloca i32, align 4
  %i2.addr = alloca i64, align 8
  %offset2.addr = alloca i32, align 4
  %myIndex = alloca i64, align 8
  %coorOffset1 = alloca i32, align 4
  %coorOffset2 = alloca i32, align 4
  store ptr %this, ptr %this.addr, align 8, !tbaa !3
  store ptr %iterator, ptr %iterator.addr, align 8, !tbaa !3
  store i64 %i1, ptr %i1.addr, align 8, !tbaa !7
  store i32 %offset1, ptr %offset1.addr, align 4, !tbaa !9
  store i64 %i2, ptr %i2.addr, align 8, !tbaa !7
  store i32 %offset2, ptr %offset2.addr, align 4, !tbaa !9
  %this1 = load ptr, ptr %this.addr, align 8
  call void @llvm.lifetime.start.p0(i64 8, ptr %myIndex) #11
  %0 = load ptr, ptr %iterator.addr, align 8, !tbaa !3
  %call = call noundef i64 @_ZNK8QuantLib19FdmLinearOpIterator5indexEv(ptr noundef nonnull align 8 dereferenceable(56) %0)
  %1 = load ptr, ptr %iterator.addr, align 8, !tbaa !3
  %call2 = call noundef nonnull align 8 dereferenceable(24) ptr @_ZNK8QuantLib19FdmLinearOpIterator11coordinatesEv(ptr noundef nonnull align 8 dereferenceable(56) %1)
  %2 = load i64, ptr %i1.addr, align 8, !tbaa !7
  %call3 = call noundef nonnull align 8 dereferenceable(8) ptr @_ZNKSt6vectorImSaImEEixEm(ptr noundef nonnull align 8 dereferenceable(24) %call2, i64 noundef %2) #11
  %3 = load i64, ptr %call3, align 8, !tbaa !7
  %spacing_ = getelementptr inbounds nuw %"class.QuantLib::FdmLinearOpLayout", ptr %this1, i32 0, i32 2
  %4 = load i64, ptr %i1.addr, align 8, !tbaa !7
  %call4 = call noundef nonnull align 8 dereferenceable(8) ptr @_ZNKSt6vectorImSaImEEixEm(ptr noundef nonnull align 8 dereferenceable(24) %spacing_, i64 noundef %4) #11
  %5 = load i64, ptr %call4, align 8, !tbaa !7
  %mul = mul i64 %3, %5
  %sub = sub i64 %call, %mul
  %6 = load ptr, ptr %iterator.addr, align 8, !tbaa !3
  %call5 = call noundef nonnull align 8 dereferenceable(24) ptr @_ZNK8QuantLib19FdmLinearOpIterator11coordinatesEv(ptr noundef nonnull align 8 dereferenceable(56) %6)
  %7 = load i64, ptr %i2.addr, align 8, !tbaa !7
  %call6 = call noundef nonnull align 8 dereferenceable(8) ptr @_ZNKSt6vectorImSaImEEixEm(ptr noundef nonnull align 8 dereferenceable(24) %call5, i64 noundef %7) #11
  %8 = load i64, ptr %call6, align 8, !tbaa !7
  %spacing_7 = getelementptr inbounds nuw %"class.QuantLib::FdmLinearOpLayout", ptr %this1, i32 0, i32 2
  %9 = load i64, ptr %i2.addr, align 8, !tbaa !7
  %call8 = call noundef nonnull align 8 dereferenceable(8) ptr @_ZNKSt6vectorImSaImEEixEm(ptr noundef nonnull align 8 dereferenceable(24) %spacing_7, i64 noundef %9) #11
  %10 = load i64, ptr %call8, align 8, !tbaa !7
  %mul9 = mul i64 %8, %10
  %sub10 = sub i64 %sub, %mul9
  store i64 %sub10, ptr %myIndex, align 8, !tbaa !7
  call void @llvm.lifetime.start.p0(i64 4, ptr %coorOffset1) #11
  %11 = load ptr, ptr %iterator.addr, align 8, !tbaa !3
  %call11 = call noundef nonnull align 8 dereferenceable(24) ptr @_ZNK8QuantLib19FdmLinearOpIterator11coordinatesEv(ptr noundef nonnull align 8 dereferenceable(56) %11)
  %12 = load i64, ptr %i1.addr, align 8, !tbaa !7
  %call12 = call noundef nonnull align 8 dereferenceable(8) ptr @_ZNKSt6vectorImSaImEEixEm(ptr noundef nonnull align 8 dereferenceable(24) %call11, i64 noundef %12) #11
  %13 = load i64, ptr %call12, align 8, !tbaa !7
  %conv = trunc i64 %13 to i32
  %14 = load i32, ptr %offset1.addr, align 4, !tbaa !9
  %add = add nsw i32 %conv, %14
  store i32 %add, ptr %coorOffset1, align 4, !tbaa !9
  %15 = load i32, ptr %coorOffset1, align 4, !tbaa !9
  %cmp = icmp slt i32 %15, 0
  br i1 %cmp, label %if.then, label %if.else

if.then:                                          ; preds = %entry
  %16 = load i32, ptr %coorOffset1, align 4, !tbaa !9
  %sub13 = sub nsw i32 0, %16
  store i32 %sub13, ptr %coorOffset1, align 4, !tbaa !9
  br label %if.end25

if.else:                                          ; preds = %entry
  %17 = load i32, ptr %coorOffset1, align 4, !tbaa !9
  %conv14 = sext i32 %17 to i64
  %dim_ = getelementptr inbounds nuw %"class.QuantLib::FdmLinearOpLayout", ptr %this1, i32 0, i32 1
  %18 = load i64, ptr %i1.addr, align 8, !tbaa !7
  %call15 = call noundef nonnull align 8 dereferenceable(8) ptr @_ZNKSt6vectorImSaImEEixEm(ptr noundef nonnull align 8 dereferenceable(24) %dim_, i64 noundef %18) #11
  %19 = load i64, ptr %call15, align 8, !tbaa !7
  %cmp16 = icmp uge i64 %conv14, %19
  br i1 %cmp16, label %if.then17, label %if.end

if.then17:                                        ; preds = %if.else
  %dim_18 = getelementptr inbounds nuw %"class.QuantLib::FdmLinearOpLayout", ptr %this1, i32 0, i32 1
  %20 = load i64, ptr %i1.addr, align 8, !tbaa !7
  %call19 = call noundef nonnull align 8 dereferenceable(8) ptr @_ZNKSt6vectorImSaImEEixEm(ptr noundef nonnull align 8 dereferenceable(24) %dim_18, i64 noundef %20) #11
  %21 = load i64, ptr %call19, align 8, !tbaa !7
  %sub20 = sub i64 %21, 1
  %mul21 = mul i64 2, %sub20
  %22 = load i32, ptr %coorOffset1, align 4, !tbaa !9
  %conv22 = sext i32 %22 to i64
  %sub23 = sub i64 %mul21, %conv22
  %conv24 = trunc i64 %sub23 to i32
  store i32 %conv24, ptr %coorOffset1, align 4, !tbaa !9
  br label %if.end

if.end:                                           ; preds = %if.then17, %if.else
  br label %if.end25

if.end25:                                         ; preds = %if.end, %if.then
  call void @llvm.lifetime.start.p0(i64 4, ptr %coorOffset2) #11
  %23 = load ptr, ptr %iterator.addr, align 8, !tbaa !3
  %call26 = call noundef nonnull align 8 dereferenceable(24) ptr @_ZNK8QuantLib19FdmLinearOpIterator11coordinatesEv(ptr noundef nonnull align 8 dereferenceable(56) %23)
  %24 = load i64, ptr %i2.addr, align 8, !tbaa !7
  %call27 = call noundef nonnull align 8 dereferenceable(8) ptr @_ZNKSt6vectorImSaImEEixEm(ptr noundef nonnull align 8 dereferenceable(24) %call26, i64 noundef %24) #11
  %25 = load i64, ptr %call27, align 8, !tbaa !7
  %conv28 = trunc i64 %25 to i32
  %26 = load i32, ptr %offset2.addr, align 4, !tbaa !9
  %add29 = add nsw i32 %conv28, %26
  store i32 %add29, ptr %coorOffset2, align 4, !tbaa !9
  %27 = load i32, ptr %coorOffset2, align 4, !tbaa !9
  %cmp30 = icmp slt i32 %27, 0
  br i1 %cmp30, label %if.then31, label %if.else33

if.then31:                                        ; preds = %if.end25
  %28 = load i32, ptr %coorOffset2, align 4, !tbaa !9
  %sub32 = sub nsw i32 0, %28
  store i32 %sub32, ptr %coorOffset2, align 4, !tbaa !9
  br label %if.end47

if.else33:                                        ; preds = %if.end25
  %29 = load i32, ptr %coorOffset2, align 4, !tbaa !9
  %conv34 = sext i32 %29 to i64
  %dim_35 = getelementptr inbounds nuw %"class.QuantLib::FdmLinearOpLayout", ptr %this1, i32 0, i32 1
  %30 = load i64, ptr %i2.addr, align 8, !tbaa !7
  %call36 = call noundef nonnull align 8 dereferenceable(8) ptr @_ZNKSt6vectorImSaImEEixEm(ptr noundef nonnull align 8 dereferenceable(24) %dim_35, i64 noundef %30) #11
  %31 = load i64, ptr %call36, align 8, !tbaa !7
  %cmp37 = icmp uge i64 %conv34, %31
  br i1 %cmp37, label %if.then38, label %if.end46

if.then38:                                        ; preds = %if.else33
  %dim_39 = getelementptr inbounds nuw %"class.QuantLib::FdmLinearOpLayout", ptr %this1, i32 0, i32 1
  %32 = load i64, ptr %i2.addr, align 8, !tbaa !7
  %call40 = call noundef nonnull align 8 dereferenceable(8) ptr @_ZNKSt6vectorImSaImEEixEm(ptr noundef nonnull align 8 dereferenceable(24) %dim_39, i64 noundef %32) #11
  %33 = load i64, ptr %call40, align 8, !tbaa !7
  %sub41 = sub i64 %33, 1
  %mul42 = mul i64 2, %sub41
  %34 = load i32, ptr %coorOffset2, align 4, !tbaa !9
  %conv43 = sext i32 %34 to i64
  %sub44 = sub i64 %mul42, %conv43
  %conv45 = trunc i64 %sub44 to i32
  store i32 %conv45, ptr %coorOffset2, align 4, !tbaa !9
  br label %if.end46

if.end46:                                         ; preds = %if.then38, %if.else33
  br label %if.end47

if.end47:                                         ; preds = %if.end46, %if.then31
  %35 = load i64, ptr %myIndex, align 8, !tbaa !7
  %36 = load i32, ptr %coorOffset1, align 4, !tbaa !9
  %conv48 = sext i32 %36 to i64
  %spacing_49 = getelementptr inbounds nuw %"class.QuantLib::FdmLinearOpLayout", ptr %this1, i32 0, i32 2
  %37 = load i64, ptr %i1.addr, align 8, !tbaa !7
  %call50 = call noundef nonnull align 8 dereferenceable(8) ptr @_ZNKSt6vectorImSaImEEixEm(ptr noundef nonnull align 8 dereferenceable(24) %spacing_49, i64 noundef %37) #11
  %38 = load i64, ptr %call50, align 8, !tbaa !7
  %mul51 = mul i64 %conv48, %38
  %add52 = add i64 %35, %mul51
  %39 = load i32, ptr %coorOffset2, align 4, !tbaa !9
  %conv53 = sext i32 %39 to i64
  %spacing_54 = getelementptr inbounds nuw %"class.QuantLib::FdmLinearOpLayout", ptr %this1, i32 0, i32 2
  %40 = load i64, ptr %i2.addr, align 8, !tbaa !7
  %call55 = call noundef nonnull align 8 dereferenceable(8) ptr @_ZNKSt6vectorImSaImEEixEm(ptr noundef nonnull align 8 dereferenceable(24) %spacing_54, i64 noundef %40) #11
  %41 = load i64, ptr %call55, align 8, !tbaa !7
  %mul56 = mul i64 %conv53, %41
  %add57 = add i64 %add52, %mul56
  call void @llvm.lifetime.end.p0(i64 4, ptr %coorOffset2) #11
  call void @llvm.lifetime.end.p0(i64 4, ptr %coorOffset1) #11
  call void @llvm.lifetime.end.p0(i64 8, ptr %myIndex) #11
  ret i64 %add57
}