; Function Attrs: mustprogress nofree norecurse nosync nounwind willreturn memory(read, inaccessiblemem: none) uwtable
define noundef i64 @_ZNK8QuantLib17FdmLinearOpLayout13neighbourhoodERKNS_19FdmLinearOpIteratorEmimi(ptr nocapture noundef nonnull readonly align 8 dereferenceable(56) %this, ptr nocapture noundef nonnull readonly align 8 dereferenceable(56) %iterator, i64 noundef %i1, i32 noundef %offset1, i64 noundef %i2, i32 noundef %offset2) local_unnamed_addr #0 align 2 {
entry:
  %0 = load i64, ptr %iterator, align 8, !tbaa !3
  %coordinates_.i = getelementptr inbounds nuw i8, ptr %iterator, i64 32
  %1 = load ptr, ptr %coordinates_.i, align 8, !tbaa !13
  %add.ptr.i = getelementptr inbounds nuw i64, ptr %1, i64 %i1
  %2 = load i64, ptr %add.ptr.i, align 8, !tbaa !14
  %spacing_ = getelementptr inbounds nuw i8, ptr %this, i64 32
  %3 = load ptr, ptr %spacing_, align 8, !tbaa !13
  %add.ptr.i24 = getelementptr inbounds nuw i64, ptr %3, i64 %i1
  %4 = load i64, ptr %add.ptr.i24, align 8, !tbaa !14
  %add.ptr.i26 = getelementptr inbounds nuw i64, ptr %1, i64 %i2
  %5 = load i64, ptr %add.ptr.i26, align 8, !tbaa !14
  %add.ptr.i27 = getelementptr inbounds nuw i64, ptr %3, i64 %i2
  %6 = load i64, ptr %add.ptr.i27, align 8, !tbaa !14
  %conv = trunc i64 %2 to i32
  %add = add nsw i32 %offset1, %conv
  %sub13 = sub i32 0, %add
  %cmp = icmp slt i32 %add, 0
  br i1 %cmp, label %if.end25, label %if.else

if.else:                                          ; preds = %entry
  %conv14 = zext nneg i32 %add to i64
  %dim_ = getelementptr inbounds nuw i8, ptr %this, i64 8
  %7 = load ptr, ptr %dim_, align 8, !tbaa !13
  %add.ptr.i30 = getelementptr inbounds nuw i64, ptr %7, i64 %i1
  %8 = load i64, ptr %add.ptr.i30, align 8, !tbaa !14
  %cmp16.not = icmp ugt i64 %8, %conv14
  br i1 %cmp16.not, label %if.end25, label %if.then17

if.then17:                                        ; preds = %if.else
  %.tr = trunc i64 %8 to i32
  %9 = shl nuw i32 %.tr, 1
  %reass.sub = sub i32 %9, %add
  %conv24 = add i32 %reass.sub, -2
  br label %if.end25

if.end25:                                         ; preds = %entry, %if.else, %if.then17
  %coorOffset1.0 = phi i32 [ %conv24, %if.then17 ], [ %add, %if.else ], [ %sub13, %entry ]
  %conv28 = trunc i64 %5 to i32
  %add29 = add nsw i32 %offset2, %conv28
  %sub32 = sub i32 0, %add29
  %cmp30 = icmp slt i32 %add29, 0
  br i1 %cmp30, label %if.end47, label %if.else33

if.else33:                                        ; preds = %if.end25
  %conv34 = zext nneg i32 %add29 to i64
  %dim_35 = getelementptr inbounds nuw i8, ptr %this, i64 8
  %10 = load ptr, ptr %dim_35, align 8, !tbaa !13
  %add.ptr.i34 = getelementptr inbounds nuw i64, ptr %10, i64 %i2
  %11 = load i64, ptr %add.ptr.i34, align 8, !tbaa !14
  %cmp37.not = icmp ugt i64 %11, %conv34
  br i1 %cmp37.not, label %if.end47, label %if.then38

if.then38:                                        ; preds = %if.else33
  %.tr23 = trunc i64 %11 to i32
  %12 = shl nuw i32 %.tr23, 1
  %reass.sub40 = sub i32 %12, %add29
  %conv45 = add i32 %reass.sub40, -2
  br label %if.end47

if.end47:                                         ; preds = %if.end25, %if.else33, %if.then38
  %coorOffset2.0 = phi i32 [ %conv45, %if.then38 ], [ %add29, %if.else33 ], [ %sub32, %if.end25 ]
  %conv48 = sext i32 %coorOffset1.0 to i64
  %conv53 = sext i32 %coorOffset2.0 to i64
  %reass.add = sub i64 %conv53, %5
  %reass.mul = mul i64 %reass.add, %6
  %reass.add38 = sub i64 %conv48, %2
  %reass.mul39 = mul i64 %reass.add38, %4
  %add52 = add i64 %reass.mul, %0
  %add57 = add i64 %add52, %reass.mul39
  ret i64 %add57
}